target datalayout = "e-m:e-p270:32:32-p271:32:32-p272:64:64-i64:64-i128:128-f80:128-n8:16:32:64-S128"
target triple = "x86_64-unknown-linux-gnu"

%"class.google::protobuf::io::ZeroCopyInputStream" = type { ptr }
%"class.google::protobuf::io::LimitingInputStream" = type { %"class.google::protobuf::io::ZeroCopyInputStream", ptr, i64, i64 }

; Function Attrs: mustprogress uwtable
define noundef zeroext i1 @_ZN6google8protobuf2io19LimitingInputStream4SkipEi(ptr noundef nonnull align 8 dereferenceable(32) %this, i32 noundef %count) unnamed_addr #5 align 2 {
entry:
  %retval = alloca i1, align 1
  %this.addr = alloca ptr, align 8
  %count.addr = alloca i32, align 4
  store ptr %this, ptr %this.addr, align 8
  store i32 %count, ptr %count.addr, align 4
  %this1 = load ptr, ptr %this.addr, align 8
  %0 = load i32, ptr %count.addr, align 4
  %conv = sext i32 %0 to i64
  %limit_ = getelementptr inbounds %"class.google::protobuf::io::LimitingInputStream", ptr %this1, i32 0, i32 2
  %1 = load i64, ptr %limit_, align 8
  %cmp = icmp sgt i64 %conv, %1
  br i1 %cmp, label %if.then, label %if.else

if.then:                                          ; preds = %entry
  %limit_2 = getelementptr inbounds %"class.google::protobuf::io::LimitingInputStream", ptr %this1, i32 0, i32 2
  %2 = load i64, ptr %limit_2, align 8
  %cmp3 = icmp slt i64 %2, 0
  br i1 %cmp3, label %if.then4, label %if.end

if.then4:                                         ; preds = %if.then
  store i1 false, ptr %retval, align 1
  br label %return

if.end:                                           ; preds = %if.then
  %input_ = getelementptr inbounds %"class.google::protobuf::io::LimitingInputStream", ptr %this1, i32 0, i32 1
  %3 = load ptr, ptr %input_, align 8
  %limit_5 = getelementptr inbounds %"class.google::protobuf::io::LimitingInputStream", ptr %this1, i32 0, i32 2
  %4 = load i64, ptr %limit_5, align 8
  %conv6 = trunc i64 %4 to i32
  %vtable = load ptr, ptr %3, align 8
  %vfn = getelementptr inbounds ptr, ptr %vtable, i64 4
  %5 = load ptr, ptr %vfn, align 8
  %call = call noundef zeroext i1 %5(ptr noundef nonnull align 8 dereferenceable(8) %3, i32 noundef %conv6)
  %limit_7 = getelementptr inbounds %"class.google::protobuf::io::LimitingInputStream", ptr %this1, i32 0, i32 2
  store i64 0, ptr %limit_7, align 8
  store i1 false, ptr %retval, align 1
  br label %return

if.else:                                          ; preds = %entry
  %input_8 = getelementptr inbounds %"class.google::protobuf::io::LimitingInputStream", ptr %this1, i32 0, i32 1
  %6 = load ptr, ptr %input_8, align 8
  %7 = load i32, ptr %count.addr, align 4
  %vtable9 = load ptr, ptr %6, align 8
  %vfn10 = getelementptr inbounds ptr, ptr %vtable9, i64 4
  %8 = load ptr, ptr %vfn10, align 8
  %call11 = call noundef zeroext i1 %8(ptr noundef nonnull align 8 dereferenceable(8) %6, i32 noundef %7)
  br i1 %call11, label %if.end13, label %if.then12

if.then12:                                        ; preds = %if.else
  store i1 false, ptr %retval, align 1
  br label %return

if.end13:                                         ; preds = %if.else
  %9 = load i32, ptr %count.addr, align 4
  %conv14 = sext i32 %9 to i64
  %limit_15 = getelementptr inbounds %"class.google::protobuf::io::LimitingInputStream", ptr %this1, i32 0, i32 2
  %10 = load i64, ptr %limit_15, align 8
  %sub = sub nsw i64 %10, %conv14
  store i64 %sub, ptr %limit_15, align 8
  store i1 true, ptr %retval, align 1
  br label %return

return:                                           ; preds = %if.end13, %if.then12, %if.end, %if.then4
  %11 = load i1, ptr %retval, align 1
  ret i1 %11
}