; Function Attrs: mustprogress uwtable
define noundef zeroext i1 @_ZN6google8protobuf2io19LimitingInputStream4SkipEi(ptr nocapture noundef nonnull align 8 dereferenceable(32) %this, i32 noundef %count) unnamed_addr #5 align 2 {
entry:
  %conv = sext i32 %count to i64
  %limit_ = getelementptr inbounds i8, ptr %this, i64 16
  %0 = load i64, ptr %limit_, align 8
  %cmp = icmp sge i64 %0, %conv
  br i1 %cmp, label %if.else, label %if.then

if.then:                                          ; preds = %entry
  %cmp3 = icmp slt i64 %0, 0
  br i1 %cmp3, label %return, label %if.end

if.end:                                           ; preds = %if.then
  %input_ = getelementptr inbounds i8, ptr %this, i64 8
  %1 = load ptr, ptr %input_, align 8
  %conv6 = trunc i64 %0 to i32
  %vtable = load ptr, ptr %1, align 8
  %vfn = getelementptr inbounds i8, ptr %vtable, i64 32
  %2 = load ptr, ptr %vfn, align 8
  %call = tail call noundef zeroext i1 %2(ptr noundef nonnull align 8 dereferenceable(8) %1, i32 noundef %conv6)
  br label %return.sink.split

if.else:                                          ; preds = %entry
  %input_8 = getelementptr inbounds i8, ptr %this, i64 8
  %3 = load ptr, ptr %input_8, align 8
  %vtable9 = load ptr, ptr %3, align 8
  %vfn10 = getelementptr inbounds i8, ptr %vtable9, i64 32
  %4 = load ptr, ptr %vfn10, align 8
  %call11 = tail call noundef zeroext i1 %4(ptr noundef nonnull align 8 dereferenceable(8) %3, i32 noundef %count)
  br i1 %call11, label %if.end13, label %return

if.end13:                                         ; preds = %if.else
  %5 = load i64, ptr %limit_, align 8
  %sub = sub nsw i64 %5, %conv
  br label %return.sink.split

return.sink.split:                                ; preds = %if.end, %if.end13
  %sub.sink = phi i64 [ %sub, %if.end13 ], [ 0, %if.end ]
  store i64 %sub.sink, ptr %limit_, align 8
  br label %return

return:                                           ; preds = %return.sink.split, %if.else, %if.then
  %retval.0 = phi i1 [ false, %if.then ], [ false, %if.else ], [ %cmp, %return.sink.split ]
  ret i1 %retval.0
}